target datalayout = "e-m:e-p270:32:32-p271:32:32-p272:64:64-i64:64-i128:128-f80:128-n8:16:32:64-S128"
target triple = "x86_64-pc-linux-gnu"

%union.pthread_mutex_t = type { %struct.__pthread_mutex_s }
%struct.__pthread_mutex_s = type { i32, i32, i32, i32, i32, i16, i16, %struct.__pthread_internal_list }
%struct.__pthread_internal_list = type { ptr, ptr }
%struct.uid_cache_entry_t = type { i32, ptr }

@uid_lock = internal global %union.pthread_mutex_t zeroinitializer, align 8
@.str.9 = private unnamed_addr constant [29 x i8] c"%s: pthread_mutex_lock(): %m\00", align 1
@__func__.uid_cache_clear = private unnamed_addr constant [16 x i8] c"uid_cache_clear\00", align 1
@uid_cache_used = internal global i32 0, align 4
@uid_cache = internal global ptr null, align 8
@.str.10 = private unnamed_addr constant [31 x i8] c"%s: pthread_mutex_unlock(): %m\00", align 1

; Function Attrs: nounwind uwtable
define dso_local void @uid_cache_clear() #0 {
  %1 = alloca i32, align 4
  %2 = alloca i32, align 4
  %3 = alloca i32, align 4
  call void @llvm.lifetime.start.p0(i64 4, ptr %1) #9
  br label %4

4:                                                ; preds = %0
  call void @llvm.lifetime.start.p0(i64 4, ptr %2) #9
  %5 = call i32 @pthread_mutex_lock(ptr noundef @uid_lock) #9
  store i32 %5, ptr %2, align 4
  %6 = load i32, ptr %2, align 4
  %7 = icmp ne i32 %6, 0
  br i1 %7, label %8, label %11

8:                                                ; preds = %4
  %9 = load i32, ptr %2, align 4
  %10 = call ptr @__errno_location() #10
  store i32 %9, ptr %10, align 4
  call void (ptr, ...) @fatal_abort(ptr noundef @.str.9, ptr noundef @__func__.uid_cache_clear) #11
  unreachable

11:                                               ; preds = %4
  call void @llvm.lifetime.end.p0(i64 4, ptr %2) #9
  br label %12

12:                                               ; preds = %11
  br label %13

13:                                               ; preds = %12
  store i32 0, ptr %1, align 4
  br label %14

14:                                               ; preds = %24, %13
  %15 = load i32, ptr %1, align 4
  %16 = load i32, ptr @uid_cache_used, align 4
  %17 = icmp slt i32 %15, %16
  br i1 %17, label %18, label %27

18:                                               ; preds = %14
  %19 = load ptr, ptr @uid_cache, align 8
  %20 = load i32, ptr %1, align 4
  %21 = sext i32 %20 to i64
  %22 = getelementptr inbounds %struct.uid_cache_entry_t, ptr %19, i64 %21
  %23 = getelementptr inbounds nuw %struct.uid_cache_entry_t, ptr %22, i32 0, i32 1
  call void @slurm_xfree(ptr noundef %23)
  br label %24

24:                                               ; preds = %18
  %25 = load i32, ptr %1, align 4
  %26 = add nsw i32 %25, 1
  store i32 %26, ptr %1, align 4
  br label %14, !llvm.loop !11

27:                                               ; preds = %14
  call void @slurm_xfree(ptr noundef @uid_cache)
  store i32 0, ptr @uid_cache_used, align 4
  br label %28

28:                                               ; preds = %27
  call void @llvm.lifetime.start.p0(i64 4, ptr %3) #9
  %29 = call i32 @pthread_mutex_unlock(ptr noundef @uid_lock) #9
  store i32 %29, ptr %3, align 4
  %30 = load i32, ptr %3, align 4
  %31 = icmp ne i32 %30, 0
  br i1 %31, label %32, label %35

32:                                               ; preds = %28
  %33 = load i32, ptr %3, align 4
  %34 = call ptr @__errno_location() #10
  store i32 %33, ptr %34, align 4
  call void (ptr, ...) @fatal_abort(ptr noundef @.str.10, ptr noundef @__func__.uid_cache_clear) #11
  unreachable

35:                                               ; preds = %28
  call void @llvm.lifetime.end.p0(i64 4, ptr %3) #9
  br label %36

36:                                               ; preds = %35
  br label %37

37:                                               ; preds = %36
  call void @llvm.lifetime.end.p0(i64 4, ptr %1) #9
  ret void
}