; Function Attrs: nounwind uwtable
define dso_local void @uid_cache_clear() local_unnamed_addr #0 {
  %1 = tail call i32 @pthread_mutex_lock(ptr noundef nonnull @uid_lock) #10
  %.not = icmp eq i32 %1, 0
  br i1 %.not, label %.preheader, label %4

.preheader:                                       ; preds = %0
  %2 = load i32, ptr @uid_cache_used, align 4
  %3 = icmp sgt i32 %2, 0
  br i1 %3, label %.lr.ph, label %._crit_edge

4:                                                ; preds = %0
  %5 = tail call ptr @__errno_location() #11
  store i32 %1, ptr %5, align 4
  tail call void (ptr, ...) @fatal_abort(ptr noundef nonnull @.str.9, ptr noundef nonnull @__func__.uid_cache_clear) #12
  unreachable

.lr.ph:                                           ; preds = %.preheader, %.lr.ph
  %indvars.iv = phi i64 [ %indvars.iv.next, %.lr.ph ], [ 0, %.preheader ]
  %6 = load ptr, ptr @uid_cache, align 8
  %7 = getelementptr inbounds nuw %struct.uid_cache_entry_t, ptr %6, i64 %indvars.iv, i32 1
  tail call void @slurm_xfree(ptr noundef nonnull %7) #10
  %indvars.iv.next = add nuw nsw i64 %indvars.iv, 1
  %8 = load i32, ptr @uid_cache_used, align 4
  %9 = sext i32 %8 to i64
  %10 = icmp slt i64 %indvars.iv.next, %9
  br i1 %10, label %.lr.ph, label %._crit_edge, !llvm.loop !11

._crit_edge:                                      ; preds = %.lr.ph, %.preheader
  tail call void @slurm_xfree(ptr noundef nonnull @uid_cache) #10
  store i32 0, ptr @uid_cache_used, align 4
  %11 = tail call i32 @pthread_mutex_unlock(ptr noundef nonnull @uid_lock) #10
  %.not9 = icmp eq i32 %11, 0
  br i1 %.not9, label %14, label %12

12:                                               ; preds = %._crit_edge
  %13 = tail call ptr @__errno_location() #11
  store i32 %11, ptr %13, align 4
  tail call void (ptr, ...) @fatal_abort(ptr noundef nonnull @.str.10, ptr noundef nonnull @__func__.uid_cache_clear) #12
  unreachable

14:                                               ; preds = %._crit_edge
  ret void
}